target datalayout = "e-m:e-p270:32:32-p271:32:32-p272:64:64-i64:64-i128:128-f80:128-n8:16:32:64-S128"
target triple = "x86_64-pc-linux-gnu"

%struct.H264Context = type { ptr, ptr, %struct.VideoDSPContext, %struct.H264DSPContext, %struct.H264ChromaContext, %struct.H264QpelContext, %struct.H274FilmGrainDatabase, [36 x %struct.H264Picture], ptr, %struct.H264Picture, %struct.H264Picture, ptr, i32, i32, %struct.H2645Packet, i32, i32, i32, i32, i32, i32, i32, i32, i32, i32, i32, i32, i32, i32, i32, i32, i32, ptr, %struct.H264PredContext, ptr, [96 x i32], ptr, ptr, i32, ptr, i32, i32, i32, ptr, ptr, ptr, [2 x ptr], ptr, [16 x i8], [16 x i8], [64 x i8], [64 x i8], [16 x i8], [64 x i8], [64 x i8], [16 x i8], [64 x i8], [64 x i8], [16 x i8], [64 x i8], [64 x i8], i32, i32, i32, i32, i32, i32, i32, i32, i32, i32, i32, i32, %struct.H264ParamSets, ptr, %struct.H264POCContext, [2 x %struct.H264Ref], [32 x ptr], [32 x ptr], [18 x ptr], [16 x i32], ptr, i32, i32, [67 x %struct.MMCO], i32, i32, i32, i32, i32, i32, i32, i32, i32, i32, i32, i32, i32, i32, i32, [32 x i16], i32, i32, i32, %struct.ERContext, ptr, %struct.H264SEIContext, ptr, ptr, ptr, ptr, ptr, [32 x [2 x [64 x i32]]], i32, i32, i32 }
%struct.VideoDSPContext = type { ptr, ptr }
%struct.H264DSPContext = type { [4 x ptr], [4 x ptr], ptr, ptr, ptr, ptr, ptr, ptr, ptr, ptr, ptr, ptr, ptr, ptr, ptr, ptr, ptr, ptr, ptr, ptr, ptr, ptr, ptr, ptr, ptr, ptr, ptr, ptr }
%struct.H264ChromaContext = type { [4 x ptr], [4 x ptr] }
%struct.H264QpelContext = type { [4 x [16 x ptr]], [4 x [16 x ptr]] }
%struct.H274FilmGrainDatabase = type { [13 x [13 x [64 x [64 x i8]]]], [13 x i16], [64 x [64 x i16]] }
%struct.H264Picture = type { ptr, %struct.ThreadFrame, ptr, ptr, ptr, [2 x ptr], [2 x ptr], ptr, ptr, ptr, [2 x ptr], [2 x i32], i32, i32, i32, i32, i32, [2 x [2 x [32 x i32]]], [2 x [2 x i32]], i32, i32, i32, i32, i32, i32, i32, ptr, i32, i32, i32, ptr, i32 }
%struct.ThreadFrame = type { ptr, [2 x ptr], ptr }
%struct.H2645Packet = type { ptr, %struct.H2645RBSP, i32, i32, i32 }
%struct.H2645RBSP = type { ptr, ptr, i32, i32 }
%struct.H264PredContext = type { [15 x ptr], [12 x ptr], [11 x ptr], [9 x ptr], [2 x ptr], [2 x ptr], [2 x ptr], [3 x ptr], [3 x ptr] }
%struct.H264ParamSets = type { [32 x ptr], [256 x ptr], ptr, ptr, [2 x i32] }
%struct.H264POCContext = type { i32, i32, i32, [2 x i32], i32, i32, i32, i32, i32, i32 }
%struct.H264Ref = type { [3 x ptr], [3 x i32], i32, i32, i32, ptr }
%struct.MMCO = type { i32, i32, i32 }
%struct.ERContext = type { ptr, ptr, i32, ptr, i32, i32, i32, i64, i64, i32, i32, ptr, ptr, [3 x ptr], ptr, ptr, [2 x [4 x [2 x i32]]], %struct.ERPicture, %struct.ERPicture, %struct.ERPicture, [2 x ptr], [2 x ptr], i16, i16, i32, i32, ptr, ptr }
%struct.ERPicture = type { ptr, ptr, ptr, [2 x ptr], [2 x ptr], ptr, i32 }
%struct.H264SEIContext = type { %struct.H2645SEI, %struct.H264SEIPictureTiming, %struct.H264SEIRecoveryPoint, %struct.H264SEIBufferingPeriod, %struct.H264SEIGreenMetaData }
%struct.H2645SEI = type { %struct.H2645SEIA53Caption, %struct.H2645SEIAFD, %struct.HEVCSEIDynamicHDRPlus, %struct.HEVCSEIDynamicHDRVivid, %struct.HEVCSEILCEVC, %struct.H2645SEIUnregistered, %struct.H2645SEIFramePacking, %struct.H2645SEIDisplayOrientation, %struct.H2645SEIAlternativeTransfer, %struct.H2645SEIAmbientViewingEnvironment, %struct.H2645SEIMasteringDisplay, %struct.H2645SEIContentLight, %struct.AVFilmGrainAFGS1Params, ptr }
%struct.H2645SEIA53Caption = type { ptr }
%struct.H2645SEIAFD = type { i32, i8 }
%struct.HEVCSEIDynamicHDRPlus = type { ptr }
%struct.HEVCSEIDynamicHDRVivid = type { ptr }
%struct.HEVCSEILCEVC = type { ptr }
%struct.H2645SEIUnregistered = type { ptr, i32, i32 }
%struct.H2645SEIFramePacking = type { i32, i32, i32, i32, i32, i32, i32, i32 }
%struct.H2645SEIDisplayOrientation = type { i32, i32, i32, i32 }
%struct.H2645SEIAlternativeTransfer = type { i32, i32 }
%struct.H2645SEIAmbientViewingEnvironment = type { i32, i32, i16, i16 }
%struct.H2645SEIMasteringDisplay = type { i32, [3 x [2 x i16]], [2 x i16], i32, i32 }
%struct.H2645SEIContentLight = type { i32, i16, i16 }
%struct.AVFilmGrainAFGS1Params = type { i32, [8 x ptr] }
%struct.H264SEIPictureTiming = type { [40 x i8], i32, i32, i32, i32, i32, i32, [3 x %struct.H264SEITimeCode], i32 }
%struct.H264SEITimeCode = type { i32, i32, i32, i32, i32, i32 }
%struct.H264SEIRecoveryPoint = type { i32 }
%struct.H264SEIBufferingPeriod = type { i32, [32 x i32] }
%struct.H264SEIGreenMetaData = type { i8, i8, i16, i16, i8, i8, i8, i8, i8, i16 }
%struct.H264SliceContext = type { ptr, %struct.GetBitContext, ptr, i32, i32, i32, i32, i32, [2 x i32], i32, i32, i32, i32, i32, %struct.H264PredWeightTable, i32, i32, i32, i32, [40 x i8], ptr, i32, i32, i32, [2 x i32], i32, i32, i32, [2 x i32], ptr, i32, i32, i32, i32, i32, i64, i64, i64, i64, i32, i32, i32, i32, i32, i32, i32, i32, i32, i32, i32, i32, i32, i32, i32, i32, i32, i32, i32, i32, [32 x i32], [2 x [32 x i32]], [2 x [48 x i32]], [2 x [2 x [48 x i32]]], [2 x i32], i32, [2 x [48 x %struct.H264Ref]], [2 x [32 x %struct.anon]], [2 x i32], i32, ptr, ptr, ptr, [2 x ptr], i32, i32, [2 x i32], [120 x i8], [8 x i8], [2 x [40 x [2 x i16]]], [2 x [40 x i8]], [2 x [40 x [2 x i8]]], [40 x i8], [4 x i16], [1536 x i16], [3 x [32 x i16]], [512 x i16], [2 x ptr], %struct.CABACContext, [1024 x i8], i32, [67 x %struct.MMCO], i32, i32, i32, i32, i32, i32, [2 x i32], i32, i32 }
%struct.GetBitContext = type { ptr, ptr, i32, i32, i32 }
%struct.H264PredWeightTable = type { i32, i32, i32, i32, [2 x i32], [2 x i32], [48 x [2 x [2 x i32]]], [48 x [2 x [2 x [2 x i32]]]], [48 x [48 x [2 x i32]]] }
%struct.anon = type { i8, i32 }
%struct.CABACContext = type { i32, i32, ptr, ptr, ptr }

; Function Attrs: inlinehint nounwind uwtable
define internal void @av_refstruct_pool_uninit(ptr noundef %0) #3 {
  %2 = alloca ptr, align 8
  store ptr %0, ptr %2, align 8, !tbaa !110
  %3 = load ptr, ptr %2, align 8, !tbaa !110
  call void @av_refstruct_unref(ptr noundef %3)
  ret void
}

; Function Attrs: nounwind uwtable
define void @ff_h264_free_tables(ptr noundef %0) #0 {
  %2 = alloca ptr, align 8
  %3 = alloca i32, align 4
  %4 = alloca ptr, align 8
  store ptr %0, ptr %2, align 8, !tbaa !29
  call void @llvm.lifetime.start.p0(i64 4, ptr %3) #11
  %5 = load ptr, ptr %2, align 8, !tbaa !29
  %6 = getelementptr inbounds nuw %struct.H264Context, ptr %5, i32 0, i32 32
  call void @av_freep(ptr noundef %6)
  %7 = load ptr, ptr %2, align 8, !tbaa !29
  %8 = getelementptr inbounds nuw %struct.H264Context, ptr %7, i32 0, i32 45
  call void @av_freep(ptr noundef %8)
  %9 = load ptr, ptr %2, align 8, !tbaa !29
  %10 = getelementptr inbounds nuw %struct.H264Context, ptr %9, i32 0, i32 44
  call void @av_freep(ptr noundef %10)
  %11 = load ptr, ptr %2, align 8, !tbaa !29
  %12 = getelementptr inbounds nuw %struct.H264Context, ptr %11, i32 0, i32 46
  %13 = getelementptr inbounds [2 x ptr], ptr %12, i64 0, i64 0
  call void @av_freep(ptr noundef %13)
  %14 = load ptr, ptr %2, align 8, !tbaa !29
  %15 = getelementptr inbounds nuw %struct.H264Context, ptr %14, i32 0, i32 46
  %16 = getelementptr inbounds [2 x ptr], ptr %15, i64 0, i64 1
  call void @av_freep(ptr noundef %16)
  %17 = load ptr, ptr %2, align 8, !tbaa !29
  %18 = getelementptr inbounds nuw %struct.H264Context, ptr %17, i32 0, i32 47
  call void @av_freep(ptr noundef %18)
  %19 = load ptr, ptr %2, align 8, !tbaa !29
  %20 = getelementptr inbounds nuw %struct.H264Context, ptr %19, i32 0, i32 34
  call void @av_freep(ptr noundef %20)
  %21 = load ptr, ptr %2, align 8, !tbaa !29
  %22 = getelementptr inbounds nuw %struct.H264Context, ptr %21, i32 0, i32 74
  call void @av_freep(ptr noundef %22)
  %23 = load ptr, ptr %2, align 8, !tbaa !29
  %24 = getelementptr inbounds nuw %struct.H264Context, ptr %23, i32 0, i32 39
  store ptr null, ptr %24, align 8, !tbaa !99
  %25 = load ptr, ptr %2, align 8, !tbaa !29
  %26 = getelementptr inbounds nuw %struct.H264Context, ptr %25, i32 0, i32 43
  call void @av_freep(ptr noundef %26)
  %27 = load ptr, ptr %2, align 8, !tbaa !29
  %28 = getelementptr inbounds nuw %struct.H264Context, ptr %27, i32 0, i32 36
  call void @av_freep(ptr noundef %28)
  %29 = load ptr, ptr %2, align 8, !tbaa !29
  %30 = getelementptr inbounds nuw %struct.H264Context, ptr %29, i32 0, i32 37
  call void @av_freep(ptr noundef %30)
  %31 = load ptr, ptr %2, align 8, !tbaa !29
  %32 = getelementptr inbounds nuw %struct.H264Context, ptr %31, i32 0, i32 107
  call void @av_refstruct_pool_uninit(ptr noundef %32)
  %33 = load ptr, ptr %2, align 8, !tbaa !29
  %34 = getelementptr inbounds nuw %struct.H264Context, ptr %33, i32 0, i32 108
  call void @av_refstruct_pool_uninit(ptr noundef %34)
  %35 = load ptr, ptr %2, align 8, !tbaa !29
  %36 = getelementptr inbounds nuw %struct.H264Context, ptr %35, i32 0, i32 109
  call void @av_refstruct_pool_uninit(ptr noundef %36)
  %37 = load ptr, ptr %2, align 8, !tbaa !29
  %38 = getelementptr inbounds nuw %struct.H264Context, ptr %37, i32 0, i32 110
  call void @av_refstruct_pool_uninit(ptr noundef %38)
  %39 = load ptr, ptr %2, align 8, !tbaa !29
  %40 = getelementptr inbounds nuw %struct.H264Context, ptr %39, i32 0, i32 104
  %41 = getelementptr inbounds nuw %struct.ERContext, ptr %40, i32 0, i32 3
  call void @av_freep(ptr noundef %41)
  %42 = load ptr, ptr %2, align 8, !tbaa !29
  %43 = getelementptr inbounds nuw %struct.H264Context, ptr %42, i32 0, i32 104
  %44 = getelementptr inbounds nuw %struct.ERContext, ptr %43, i32 0, i32 11
  call void @av_freep(ptr noundef %44)
  %45 = load ptr, ptr %2, align 8, !tbaa !29
  %46 = getelementptr inbounds nuw %struct.H264Context, ptr %45, i32 0, i32 104
  %47 = getelementptr inbounds nuw %struct.ERContext, ptr %46, i32 0, i32 12
  call void @av_freep(ptr noundef %47)
  %48 = load ptr, ptr %2, align 8, !tbaa !29
  %49 = getelementptr inbounds nuw %struct.H264Context, ptr %48, i32 0, i32 105
  call void @av_freep(ptr noundef %49)
  store i32 0, ptr %3, align 4, !tbaa !83
  br label %50

50:                                               ; preds = %83, %1
  %51 = load i32, ptr %3, align 4, !tbaa !83
  %52 = load ptr, ptr %2, align 8, !tbaa !29
  %53 = getelementptr inbounds nuw %struct.H264Context, ptr %52, i32 0, i32 12
  %54 = load i32, ptr %53, align 8, !tbaa !100
  %55 = icmp slt i32 %51, %54
  br i1 %55, label %56, label %86

56:                                               ; preds = %50
  call void @llvm.lifetime.start.p0(i64 8, ptr %4) #11
  %57 = load ptr, ptr %2, align 8, !tbaa !29
  %58 = getelementptr inbounds nuw %struct.H264Context, ptr %57, i32 0, i32 11
  %59 = load ptr, ptr %58, align 8, !tbaa !101
  %60 = load i32, ptr %3, align 4, !tbaa !83
  %61 = sext i32 %60 to i64
  %62 = getelementptr inbounds %struct.H264SliceContext, ptr %59, i64 %61
  store ptr %62, ptr %4, align 8, !tbaa !82
  %63 = load ptr, ptr %4, align 8, !tbaa !82
  %64 = getelementptr inbounds nuw %struct.H264SliceContext, ptr %63, i32 0, i32 70
  call void @av_freep(ptr noundef %64)
  %65 = load ptr, ptr %4, align 8, !tbaa !82
  %66 = getelementptr inbounds nuw %struct.H264SliceContext, ptr %65, i32 0, i32 71
  call void @av_freep(ptr noundef %66)
  %67 = load ptr, ptr %4, align 8, !tbaa !82
  %68 = getelementptr inbounds nuw %struct.H264SliceContext, ptr %67, i32 0, i32 72
  %69 = getelementptr inbounds [2 x ptr], ptr %68, i64 0, i64 0
  call void @av_freep(ptr noundef %69)
  %70 = load ptr, ptr %4, align 8, !tbaa !82
  %71 = getelementptr inbounds nuw %struct.H264SliceContext, ptr %70, i32 0, i32 72
  %72 = getelementptr inbounds [2 x ptr], ptr %71, i64 0, i64 1
  call void @av_freep(ptr noundef %72)
  %73 = load ptr, ptr %4, align 8, !tbaa !82
  %74 = getelementptr inbounds nuw %struct.H264SliceContext, ptr %73, i32 0, i32 73
  store i32 0, ptr %74, align 16, !tbaa !102
  %75 = load ptr, ptr %4, align 8, !tbaa !82
  %76 = getelementptr inbounds nuw %struct.H264SliceContext, ptr %75, i32 0, i32 74
  store i32 0, ptr %76, align 4, !tbaa !108
  %77 = load ptr, ptr %4, align 8, !tbaa !82
  %78 = getelementptr inbounds nuw %struct.H264SliceContext, ptr %77, i32 0, i32 75
  %79 = getelementptr inbounds [2 x i32], ptr %78, i64 0, i64 0
  store i32 0, ptr %79, align 8, !tbaa !83
  %80 = load ptr, ptr %4, align 8, !tbaa !82
  %81 = getelementptr inbounds nuw %struct.H264SliceContext, ptr %80, i32 0, i32 75
  %82 = getelementptr inbounds [2 x i32], ptr %81, i64 0, i64 1
  store i32 0, ptr %82, align 4, !tbaa !83
  call void @llvm.lifetime.end.p0(i64 8, ptr %4) #11
  br label %83

83:                                               ; preds = %56
  %84 = load i32, ptr %3, align 4, !tbaa !83
  %85 = add nsw i32 %84, 1
  store i32 %85, ptr %3, align 4, !tbaa !83
  br label %50, !llvm.loop !109

86:                                               ; preds = %50
  call void @llvm.lifetime.end.p0(i64 4, ptr %3) #11
  ret void
}