; Function Attrs: nounwind uwtable
define void @ff_h264_free_tables(ptr noundef %0) local_unnamed_addr #2 {
  %2 = getelementptr inbounds nuw i8, ptr %0, i64 730864
  tail call void @av_freep(ptr noundef nonnull %2) #11
  %3 = getelementptr inbounds nuw i8, ptr %0, i64 731800
  tail call void @av_freep(ptr noundef nonnull %3) #11
  %4 = getelementptr inbounds nuw i8, ptr %0, i64 731792
  tail call void @av_freep(ptr noundef nonnull %4) #11
  %5 = getelementptr inbounds nuw i8, ptr %0, i64 731808
  tail call void @av_freep(ptr noundef nonnull %5) #11
  %6 = getelementptr inbounds nuw i8, ptr %0, i64 731816
  tail call void @av_freep(ptr noundef nonnull %6) #11
  %7 = getelementptr inbounds nuw i8, ptr %0, i64 731824
  tail call void @av_freep(ptr noundef nonnull %7) #11
  %8 = getelementptr inbounds nuw i8, ptr %0, i64 731344
  tail call void @av_freep(ptr noundef nonnull %8) #11
  %9 = getelementptr inbounds nuw i8, ptr %0, i64 734800
  tail call void @av_freep(ptr noundef nonnull %9) #11
  %10 = getelementptr inbounds nuw i8, ptr %0, i64 731760
  store ptr null, ptr %10, align 8, !tbaa !90
  %11 = getelementptr inbounds nuw i8, ptr %0, i64 731784
  tail call void @av_freep(ptr noundef nonnull %11) #11
  %12 = getelementptr inbounds nuw i8, ptr %0, i64 731736
  tail call void @av_freep(ptr noundef nonnull %12) #11
  %13 = getelementptr inbounds nuw i8, ptr %0, i64 731744
  tail call void @av_freep(ptr noundef nonnull %13) #11
  %14 = getelementptr inbounds nuw i8, ptr %0, i64 737664
  tail call void @av_refstruct_unref(ptr noundef nonnull %14) #11
  %15 = getelementptr inbounds nuw i8, ptr %0, i64 737672
  tail call void @av_refstruct_unref(ptr noundef nonnull %15) #11
  %16 = getelementptr inbounds nuw i8, ptr %0, i64 737680
  tail call void @av_refstruct_unref(ptr noundef nonnull %16) #11
  %17 = getelementptr inbounds nuw i8, ptr %0, i64 737688
  tail call void @av_refstruct_unref(ptr noundef nonnull %17) #11
  %18 = getelementptr inbounds nuw i8, ptr %0, i64 736672
  tail call void @av_freep(ptr noundef nonnull %18) #11
  %19 = getelementptr inbounds nuw i8, ptr %0, i64 736720
  tail call void @av_freep(ptr noundef nonnull %19) #11
  %20 = getelementptr inbounds nuw i8, ptr %0, i64 736728
  tail call void @av_freep(ptr noundef nonnull %20) #11
  %21 = getelementptr inbounds nuw i8, ptr %0, i64 737120
  tail call void @av_freep(ptr noundef nonnull %21) #11
  %22 = getelementptr inbounds nuw i8, ptr %0, i64 730736
  %23 = load i32, ptr %22, align 8, !tbaa !91
  %24 = icmp sgt i32 %23, 0
  br i1 %24, label %.lr.ph, label %._crit_edge

.lr.ph:                                           ; preds = %1
  %25 = getelementptr inbounds nuw i8, ptr %0, i64 730728
  br label %26

26:                                               ; preds = %.lr.ph, %26
  %indvars.iv = phi i64 [ 0, %.lr.ph ], [ %indvars.iv.next, %26 ]
  %27 = load ptr, ptr %25, align 8, !tbaa !92
  %28 = getelementptr inbounds nuw %struct.H264SliceContext, ptr %27, i64 %indvars.iv
  %29 = getelementptr inbounds nuw i8, ptr %28, i64 28576
  tail call void @av_freep(ptr noundef nonnull %29) #11
  %30 = getelementptr inbounds nuw i8, ptr %28, i64 28584
  tail call void @av_freep(ptr noundef nonnull %30) #11
  %31 = getelementptr inbounds nuw i8, ptr %28, i64 28592
  tail call void @av_freep(ptr noundef nonnull %31) #11
  %32 = getelementptr inbounds nuw i8, ptr %28, i64 28600
  tail call void @av_freep(ptr noundef nonnull %32) #11
  %33 = getelementptr inbounds nuw i8, ptr %28, i64 28608
  %indvars.iv.next = add nuw nsw i64 %indvars.iv, 1
  tail call void @llvm.memset.p0.i64(ptr noundef nonnull align 16 dereferenceable(16) %33, i8 0, i64 16, i1 false)
  %34 = load i32, ptr %22, align 8, !tbaa !91
  %35 = sext i32 %34 to i64
  %36 = icmp slt i64 %indvars.iv.next, %35
  br i1 %36, label %26, label %._crit_edge, !llvm.loop !93

._crit_edge:                                      ; preds = %26, %1
  ret void
}